Certificate:
    Data:
        Version: 1 (0x0)
        Serial Number: 44 (0x2c)
    Signature Algorithm: sha256WithRSAEncryption
        Issuer: C=US, ST=Colorado, L=Louisville, O=CableLabs/emailAddress=secblanket@cablelabs.com, CN=Local Micronets Certificate Authority
        Validity
            Not Before: Feb  7 21:59:01 2018 GMT
            Not After : Apr  8 21:59:01 2018 GMT
        Subject: C=US, ST=Colorado, O=CableLabs, CN=medicalDevice/emailAddress=micronets@cablelabs.com
        Subject Public Key Info:
            Public Key Algorithm: rsaEncryption
                Public-Key: (2048 bit)
                Modulus:
                    00:cf:31:ff:73:9d:41:18:45:19:24:40:cd:e1:14:
                    90:3f:e3:06:b9:99:0c:76:7a:53:b2:01:de:83:9f:
                    ac:91:5e:7f:0c:0d:28:c6:0e:9c:05:c8:fa:6c:63:
                    4c:a2:9f:76:a0:94:73:43:de:6d:10:7b:ad:2d:b6:
                    76:67:09:f4:ac:ef:15:1e:68:0c:54:d2:ad:f8:0b:
                    12:72:b3:70:c5:51:d6:ce:d4:b7:ea:0b:c3:e4:9e:
                    73:ac:75:e0:7c:31:2e:60:04:23:f6:a7:4f:85:bd:
                    12:37:07:be:ac:ab:c4:21:f1:96:06:39:46:29:76:
                    ce:27:f8:ac:65:ef:3d:be:da:72:25:0b:58:83:e7:
                    cb:da:b7:ce:5c:c3:6b:4e:1a:ef:64:3f:2b:d7:9d:
                    5c:ff:49:fd:26:00:cf:24:f4:70:1c:1a:f3:4a:a8:
                    ba:97:98:f4:6b:8a:ea:33:c4:32:22:f2:93:79:a7:
                    28:f6:80:f4:b9:bc:95:f9:ab:2b:a4:ae:9e:b8:e3:
                    63:a2:ad:cc:10:f2:f3:d4:ea:bd:b0:d8:dc:9e:20:
                    e9:0d:1a:a0:8b:2d:f0:46:28:04:a7:e8:5e:7f:1b:
                    31:81:9d:40:fc:e6:d5:71:0a:c4:e5:7a:19:ea:8c:
                    25:b8:ca:96:48:65:ff:6e:6b:37:53:c6:9f:44:71:
                    6a:77
                Exponent: 65537 (0x10001)
    Signature Algorithm: sha256WithRSAEncryption
         84:58:e9:f1:3e:5b:1c:fa:4e:f5:36:ce:05:4b:82:59:5d:08:
         98:e2:5c:95:be:bc:87:97:4a:4f:e9:66:6a:d3:1a:aa:2c:8c:
         e1:c7:db:4a:49:47:26:5b:d3:73:aa:c4:35:fa:39:d3:d3:cb:
         35:1d:b5:14:5a:51:12:7f:1c:ec:2a:f7:77:20:39:31:34:52:
         95:31:fb:85:0c:ad:3d:9f:28:5c:e5:74:87:08:02:72:d9:40:
         92:53:d0:e5:8b:1a:96:87:c8:19:3c:e9:88:bd:a1:56:c6:2c:
         5c:97:79:21:2a:ea:80:27:8c:3e:f4:79:e7:54:62:c1:8b:4b:
         f3:94:dc:45:80:f2:2a:bb:e1:af:0d:99:bc:98:ae:6e:b2:c4:
         17:84:b1:55:9f:64:23:aa:70:cd:c5:24:91:29:bb:62:9a:dc:
         79:1a:d7:d0:33:51:61:e4:6c:ee:fa:50:6f:22:2c:30:d7:24:
         c4:32:95:97:17:44:fc:b3:88:b8:a8:7d:17:37:83:a6:8e:87:
         e1:d2:35:22:05:68:6a:7f:40:ab:03:09:66:69:cf:1a:6b:6d:
         a2:58:dc:1e:2e:d9:a3:27:63:a5:f2:9b:f9:95:12:ad:86:32:
         43:9f:5f:20:a2:20:7a:3f:89:13:27:e7:49:67:c4:20:c9:a7:
         b9:e8:6d:30
-----BEGIN CERTIFICATE-----
MIIDizCCAnMCASwwDQYJKoZIhvcNAQELBQAwgaIxCzAJBgNVBAYTAlVTMREwDwYD
VQQIDAhDb2xvcmFkbzETMBEGA1UEBwwKTG91aXN2aWxsZTESMBAGA1UECgwJQ2Fi
bGVMYWJzMScwJQYJKoZIhvcNAQkBFhhzZWNibGFua2V0QGNhYmxlbGFicy5jb20x
LjAsBgNVBAMMJUxvY2FsIE1pY3JvbmV0cyBDZXJ0aWZpY2F0ZSBBdXRob3JpdHkw
HhcNMTgwMjA3MjE1OTAxWhcNMTgwNDA4MjE1OTAxWjB0MQswCQYDVQQGEwJVUzER
MA8GA1UECAwIQ29sb3JhZG8xEjAQBgNVBAoMCUNhYmxlTGFiczEWMBQGA1UEAwwN
bWVkaWNhbERldmljZTEmMCQGCSqGSIb3DQEJARYXbWljcm9uZXRzQGNhYmxlbGFi
cy5jb20wggEiMA0GCSqGSIb3DQEBAQUAA4IBDwAwggEKAoIBAQDPMf9znUEYRRkk
QM3hFJA/4wa5mQx2elOyAd6Dn6yRXn8MDSjGDpwFyPpsY0yin3aglHND3m0Qe60t
tnZnCfSs7xUeaAxU0q34CxJys3DFUdbO1LfqC8PknnOsdeB8MS5gBCP2p0+FvRI3
B76sq8Qh8ZYGOUYpds4n+Kxl7z2+2nIlC1iD58vat85cw2tOGu9kPyvXnVz/Sf0m
AM8k9HAcGvNKqLqXmPRriuozxDIi8pN5pyj2gPS5vJX5qyukrp6442OircwQ8vPU
6r2w2NyeIOkNGqCLLfBGKASn6F5/GzGBnUD85tVxCsTlehnqjCW4ypZIZf9uazdT
xp9EcWp3AgMBAAEwDQYJKoZIhvcNAQELBQADggEBAIRY6fE+Wxz6TvU2zgVLglld
CJjiXJW+vIeXSk/pZmrTGqosjOHH20pJRyZb03OqxDX6OdPTyzUdtRRaURJ/HOwq
93cgOTE0UpUx+4UMrT2fKFzldIcIAnLZQJJT0OWLGpaHyBk86Yi9oVbGLFyXeSEq
6oAnjD70eedUYsGLS/OU3EWA8iq74a8NmbyYrm6yxBeEsVWfZCOqcM3FJJEpu2Ka
3Hka19AzUWHkbO76UG8iLDDXJMQylZcXRPyziLiofRc3g6aOh+HSNSIFaGp/QKsD
CWZpzxprbaJY3B4u2aMnY6Xym/mVEq2GMkOfXyCiIHo/iRMn50lnxCDJp7nobTA=
-----END CERTIFICATE-----
