Certificate:
    Data:
        Version: 1 (0x0)
        Serial Number: 45 (0x2d)
    Signature Algorithm: sha256WithRSAEncryption
        Issuer: C=US, ST=Colorado, L=Louisville, O=CableLabs/emailAddress=secblanket@cablelabs.com, CN=Local Micronets Certificate Authority
        Validity
            Not Before: Feb 20 16:26:19 2018 GMT
            Not After : Apr 21 16:26:19 2018 GMT
        Subject: C=US, ST=Colorado, O=CableLabs, CN=medicalDevice/emailAddress=micronets@cablelabs.com
        Subject Public Key Info:
            Public Key Algorithm: rsaEncryption
                Public-Key: (2048 bit)
                Modulus:
                    00:cf:31:ff:73:9d:41:18:45:19:24:40:cd:e1:14:
                    90:3f:e3:06:b9:99:0c:76:7a:53:b2:01:de:83:9f:
                    ac:91:5e:7f:0c:0d:28:c6:0e:9c:05:c8:fa:6c:63:
                    4c:a2:9f:76:a0:94:73:43:de:6d:10:7b:ad:2d:b6:
                    76:67:09:f4:ac:ef:15:1e:68:0c:54:d2:ad:f8:0b:
                    12:72:b3:70:c5:51:d6:ce:d4:b7:ea:0b:c3:e4:9e:
                    73:ac:75:e0:7c:31:2e:60:04:23:f6:a7:4f:85:bd:
                    12:37:07:be:ac:ab:c4:21:f1:96:06:39:46:29:76:
                    ce:27:f8:ac:65:ef:3d:be:da:72:25:0b:58:83:e7:
                    cb:da:b7:ce:5c:c3:6b:4e:1a:ef:64:3f:2b:d7:9d:
                    5c:ff:49:fd:26:00:cf:24:f4:70:1c:1a:f3:4a:a8:
                    ba:97:98:f4:6b:8a:ea:33:c4:32:22:f2:93:79:a7:
                    28:f6:80:f4:b9:bc:95:f9:ab:2b:a4:ae:9e:b8:e3:
                    63:a2:ad:cc:10:f2:f3:d4:ea:bd:b0:d8:dc:9e:20:
                    e9:0d:1a:a0:8b:2d:f0:46:28:04:a7:e8:5e:7f:1b:
                    31:81:9d:40:fc:e6:d5:71:0a:c4:e5:7a:19:ea:8c:
                    25:b8:ca:96:48:65:ff:6e:6b:37:53:c6:9f:44:71:
                    6a:77
                Exponent: 65537 (0x10001)
    Signature Algorithm: sha256WithRSAEncryption
         03:b6:f6:a6:9c:10:b1:dd:d6:26:de:60:a0:2d:a7:5d:97:78:
         bd:4c:3c:94:5b:ae:cb:11:68:2a:fb:7b:46:1b:06:05:36:15:
         4d:fd:55:db:99:23:32:72:f9:d7:83:31:55:16:c5:8e:be:34:
         6d:2b:0d:4f:b8:34:94:1a:33:68:20:8f:b1:0a:f8:99:a0:ad:
         a9:7e:a0:1b:0e:15:cb:f3:c2:2d:b8:dc:74:14:25:e4:20:b3:
         63:6f:44:6e:36:ce:31:05:98:66:55:7b:a0:95:a7:f7:b5:ad:
         8d:6c:75:42:b3:f6:bf:53:e9:a2:54:9a:8d:49:38:cf:7a:e0:
         48:09:c9:98:c2:80:ee:e3:7a:29:a2:c4:04:c8:a1:52:66:63:
         7b:8e:6b:f0:b4:47:5e:30:12:5b:64:76:92:31:58:56:62:86:
         41:d4:63:25:8d:1b:37:91:e9:78:b7:ad:de:78:fe:c2:3d:1c:
         a5:c6:ff:5c:07:27:0e:3a:a3:00:d6:fe:86:26:84:d6:db:c0:
         59:1e:cd:9e:ee:d4:3b:72:a9:67:fb:21:c0:f4:bc:25:d0:42:
         42:84:bd:08:b3:4c:b2:b8:db:7a:c0:22:15:f8:60:6e:17:b0:
         1d:a8:d4:28:d0:c2:d1:21:87:86:e7:28:13:73:38:1b:69:fb:
         81:c2:72:08
-----BEGIN CERTIFICATE-----
MIIDizCCAnMCAS0wDQYJKoZIhvcNAQELBQAwgaIxCzAJBgNVBAYTAlVTMREwDwYD
VQQIDAhDb2xvcmFkbzETMBEGA1UEBwwKTG91aXN2aWxsZTESMBAGA1UECgwJQ2Fi
bGVMYWJzMScwJQYJKoZIhvcNAQkBFhhzZWNibGFua2V0QGNhYmxlbGFicy5jb20x
LjAsBgNVBAMMJUxvY2FsIE1pY3JvbmV0cyBDZXJ0aWZpY2F0ZSBBdXRob3JpdHkw
HhcNMTgwMjIwMTYyNjE5WhcNMTgwNDIxMTYyNjE5WjB0MQswCQYDVQQGEwJVUzER
MA8GA1UECAwIQ29sb3JhZG8xEjAQBgNVBAoMCUNhYmxlTGFiczEWMBQGA1UEAwwN
bWVkaWNhbERldmljZTEmMCQGCSqGSIb3DQEJARYXbWljcm9uZXRzQGNhYmxlbGFi
cy5jb20wggEiMA0GCSqGSIb3DQEBAQUAA4IBDwAwggEKAoIBAQDPMf9znUEYRRkk
QM3hFJA/4wa5mQx2elOyAd6Dn6yRXn8MDSjGDpwFyPpsY0yin3aglHND3m0Qe60t
tnZnCfSs7xUeaAxU0q34CxJys3DFUdbO1LfqC8PknnOsdeB8MS5gBCP2p0+FvRI3
B76sq8Qh8ZYGOUYpds4n+Kxl7z2+2nIlC1iD58vat85cw2tOGu9kPyvXnVz/Sf0m
AM8k9HAcGvNKqLqXmPRriuozxDIi8pN5pyj2gPS5vJX5qyukrp6442OircwQ8vPU
6r2w2NyeIOkNGqCLLfBGKASn6F5/GzGBnUD85tVxCsTlehnqjCW4ypZIZf9uazdT
xp9EcWp3AgMBAAEwDQYJKoZIhvcNAQELBQADggEBAAO29qacELHd1ibeYKAtp12X
eL1MPJRbrssRaCr7e0YbBgU2FU39VduZIzJy+deDMVUWxY6+NG0rDU+4NJQaM2gg
j7EK+Jmgral+oBsOFcvzwi243HQUJeQgs2NvRG42zjEFmGZVe6CVp/e1rY1sdUKz
9r9T6aJUmo1JOM964EgJyZjCgO7jeimixATIoVJmY3uOa/C0R14wEltkdpIxWFZi
hkHUYyWNGzeR6Xi3rd54/sI9HKXG/1wHJw46owDW/oYmhNbbwFkezZ7u1DtyqWf7
IcD0vCXQQkKEvQizTLK423rAIhX4YG4XsB2o1CjQwtEhh4bnKBNzOBtp+4HCcgg=
-----END CERTIFICATE-----
