Certificate:
    Data:
        Version: 1 (0x0)
        Serial Number: 2 (0x2)
    Signature Algorithm: sha256WithRSAEncryption
        Issuer: C=US, ST=Colorado, L=Louisville, O=CableLabs/emailAddress=secblanket@cablelabs.com, CN=Local Micronets Certificate Authority
        Validity
            Not Before: Apr  8 19:27:57 2019 GMT
            Not After : Jun  7 19:27:57 2019 GMT
        Subject: C=US, ST=Colorado, O=CableLabs, CN=medicalDevice/emailAddress=micronets@cablelabs.com
        Subject Public Key Info:
            Public Key Algorithm: rsaEncryption
                Public-Key: (2048 bit)
                Modulus:
                    00:cf:31:ff:73:9d:41:18:45:19:24:40:cd:e1:14:
                    90:3f:e3:06:b9:99:0c:76:7a:53:b2:01:de:83:9f:
                    ac:91:5e:7f:0c:0d:28:c6:0e:9c:05:c8:fa:6c:63:
                    4c:a2:9f:76:a0:94:73:43:de:6d:10:7b:ad:2d:b6:
                    76:67:09:f4:ac:ef:15:1e:68:0c:54:d2:ad:f8:0b:
                    12:72:b3:70:c5:51:d6:ce:d4:b7:ea:0b:c3:e4:9e:
                    73:ac:75:e0:7c:31:2e:60:04:23:f6:a7:4f:85:bd:
                    12:37:07:be:ac:ab:c4:21:f1:96:06:39:46:29:76:
                    ce:27:f8:ac:65:ef:3d:be:da:72:25:0b:58:83:e7:
                    cb:da:b7:ce:5c:c3:6b:4e:1a:ef:64:3f:2b:d7:9d:
                    5c:ff:49:fd:26:00:cf:24:f4:70:1c:1a:f3:4a:a8:
                    ba:97:98:f4:6b:8a:ea:33:c4:32:22:f2:93:79:a7:
                    28:f6:80:f4:b9:bc:95:f9:ab:2b:a4:ae:9e:b8:e3:
                    63:a2:ad:cc:10:f2:f3:d4:ea:bd:b0:d8:dc:9e:20:
                    e9:0d:1a:a0:8b:2d:f0:46:28:04:a7:e8:5e:7f:1b:
                    31:81:9d:40:fc:e6:d5:71:0a:c4:e5:7a:19:ea:8c:
                    25:b8:ca:96:48:65:ff:6e:6b:37:53:c6:9f:44:71:
                    6a:77
                Exponent: 65537 (0x10001)
    Signature Algorithm: sha256WithRSAEncryption
         11:e1:d6:03:c7:2f:72:8a:ae:e5:be:8f:ca:d1:5f:4d:db:90:
         8c:1d:1e:c4:64:29:7e:c3:79:88:71:26:44:62:6a:d3:d2:76:
         0a:71:09:f8:52:8d:28:80:a5:8c:5d:4b:e1:9b:71:c9:82:9f:
         e8:0a:99:df:51:39:4e:7b:37:9b:99:eb:bc:7b:62:ec:ee:cc:
         03:e9:c8:46:98:28:83:2c:2c:cd:73:62:66:d4:73:02:7c:47:
         44:e9:9d:9b:20:ef:18:92:92:e5:fc:49:b9:02:06:d7:4e:f2:
         d1:77:7b:22:5f:4c:80:63:12:c9:0b:02:55:d8:6f:8f:ce:88:
         89:8e:be:8c:e1:6b:ba:be:7f:ec:85:69:c9:87:5b:d9:71:11:
         d2:83:e6:4d:24:ca:90:94:b2:1b:f4:1b:39:d0:fd:b4:85:0e:
         d7:a4:68:28:11:7d:8c:79:55:9c:6a:11:d4:95:54:91:bb:75:
         7a:45:ac:d1:07:05:98:f1:9e:88:81:3a:99:d4:2e:4e:af:1c:
         69:66:2b:db:de:d5:14:23:96:b9:bd:a6:20:5b:b3:03:e3:ce:
         db:24:90:5b:63:bb:9b:1f:cd:3c:86:ce:7d:5a:2e:61:4b:b8:
         c5:b9:a3:6a:4d:8c:f6:be:34:53:99:aa:82:d7:3f:d2:18:30:
         fe:5b:69:9a
-----BEGIN CERTIFICATE-----
MIIDizCCAnMCAQIwDQYJKoZIhvcNAQELBQAwgaIxCzAJBgNVBAYTAlVTMREwDwYD
VQQIDAhDb2xvcmFkbzETMBEGA1UEBwwKTG91aXN2aWxsZTESMBAGA1UECgwJQ2Fi
bGVMYWJzMScwJQYJKoZIhvcNAQkBFhhzZWNibGFua2V0QGNhYmxlbGFicy5jb20x
LjAsBgNVBAMMJUxvY2FsIE1pY3JvbmV0cyBDZXJ0aWZpY2F0ZSBBdXRob3JpdHkw
HhcNMTkwNDA4MTkyNzU3WhcNMTkwNjA3MTkyNzU3WjB0MQswCQYDVQQGEwJVUzER
MA8GA1UECAwIQ29sb3JhZG8xEjAQBgNVBAoMCUNhYmxlTGFiczEWMBQGA1UEAwwN
bWVkaWNhbERldmljZTEmMCQGCSqGSIb3DQEJARYXbWljcm9uZXRzQGNhYmxlbGFi
cy5jb20wggEiMA0GCSqGSIb3DQEBAQUAA4IBDwAwggEKAoIBAQDPMf9znUEYRRkk
QM3hFJA/4wa5mQx2elOyAd6Dn6yRXn8MDSjGDpwFyPpsY0yin3aglHND3m0Qe60t
tnZnCfSs7xUeaAxU0q34CxJys3DFUdbO1LfqC8PknnOsdeB8MS5gBCP2p0+FvRI3
B76sq8Qh8ZYGOUYpds4n+Kxl7z2+2nIlC1iD58vat85cw2tOGu9kPyvXnVz/Sf0m
AM8k9HAcGvNKqLqXmPRriuozxDIi8pN5pyj2gPS5vJX5qyukrp6442OircwQ8vPU
6r2w2NyeIOkNGqCLLfBGKASn6F5/GzGBnUD85tVxCsTlehnqjCW4ypZIZf9uazdT
xp9EcWp3AgMBAAEwDQYJKoZIhvcNAQELBQADggEBABHh1gPHL3KKruW+j8rRX03b
kIwdHsRkKX7DeYhxJkRiatPSdgpxCfhSjSiApYxdS+GbccmCn+gKmd9ROU57N5uZ
67x7YuzuzAPpyEaYKIMsLM1zYmbUcwJ8R0TpnZsg7xiSkuX8SbkCBtdO8tF3eyJf
TIBjEskLAlXYb4/OiImOvozha7q+f+yFacmHW9lxEdKD5k0kypCUshv0GznQ/bSF
DtekaCgRfYx5VZxqEdSVVJG7dXpFrNEHBZjxnoiBOpnULk6vHGlmK9ve1RQjlrm9
piBbswPjztskkFtju5sfzTyGzn1aLmFLuMW5o2pNjPa+NFOZqoLXP9IYMP5baZo=
-----END CERTIFICATE-----
