Certificate:
    Data:
        Version: 1 (0x0)
        Serial Number: 47 (0x2f)
    Signature Algorithm: sha256WithRSAEncryption
        Issuer: C=US, ST=Colorado, L=Louisville, O=CableLabs/emailAddress=secblanket@cablelabs.com, CN=Local Micronets Certificate Authority
        Validity
            Not Before: Dec  5 23:50:00 2018 GMT
            Not After : Feb  3 23:50:00 2019 GMT
        Subject: C=US, ST=Colorado, O=CableLabs, CN=medicalDevice/emailAddress=micronets@cablelabs.com
        Subject Public Key Info:
            Public Key Algorithm: rsaEncryption
                Public-Key: (2048 bit)
                Modulus:
                    00:cf:31:ff:73:9d:41:18:45:19:24:40:cd:e1:14:
                    90:3f:e3:06:b9:99:0c:76:7a:53:b2:01:de:83:9f:
                    ac:91:5e:7f:0c:0d:28:c6:0e:9c:05:c8:fa:6c:63:
                    4c:a2:9f:76:a0:94:73:43:de:6d:10:7b:ad:2d:b6:
                    76:67:09:f4:ac:ef:15:1e:68:0c:54:d2:ad:f8:0b:
                    12:72:b3:70:c5:51:d6:ce:d4:b7:ea:0b:c3:e4:9e:
                    73:ac:75:e0:7c:31:2e:60:04:23:f6:a7:4f:85:bd:
                    12:37:07:be:ac:ab:c4:21:f1:96:06:39:46:29:76:
                    ce:27:f8:ac:65:ef:3d:be:da:72:25:0b:58:83:e7:
                    cb:da:b7:ce:5c:c3:6b:4e:1a:ef:64:3f:2b:d7:9d:
                    5c:ff:49:fd:26:00:cf:24:f4:70:1c:1a:f3:4a:a8:
                    ba:97:98:f4:6b:8a:ea:33:c4:32:22:f2:93:79:a7:
                    28:f6:80:f4:b9:bc:95:f9:ab:2b:a4:ae:9e:b8:e3:
                    63:a2:ad:cc:10:f2:f3:d4:ea:bd:b0:d8:dc:9e:20:
                    e9:0d:1a:a0:8b:2d:f0:46:28:04:a7:e8:5e:7f:1b:
                    31:81:9d:40:fc:e6:d5:71:0a:c4:e5:7a:19:ea:8c:
                    25:b8:ca:96:48:65:ff:6e:6b:37:53:c6:9f:44:71:
                    6a:77
                Exponent: 65537 (0x10001)
    Signature Algorithm: sha256WithRSAEncryption
         b4:97:1a:a6:e9:be:34:5e:c8:36:07:6e:a3:33:ef:d0:82:43:
         27:74:94:99:f3:fd:c3:7c:1b:29:90:93:11:00:bc:ce:fd:ae:
         9d:07:85:ee:fe:ec:c2:90:0e:21:67:ae:6d:61:15:22:fb:62:
         a3:2a:12:04:65:0a:26:e9:b7:d3:56:f0:96:92:59:0e:08:e6:
         b6:0d:0e:a3:1c:fb:14:13:88:17:5d:cf:b7:0f:cb:da:2f:5e:
         d5:1e:bf:e3:50:49:9b:49:9d:e4:09:4c:74:c4:b7:6d:64:ae:
         4b:e4:5d:67:17:8d:74:88:dd:86:71:f2:50:7b:18:cd:28:73:
         d5:2c:9b:d5:02:56:f6:12:c2:a0:9e:8a:91:d4:d1:90:24:91:
         c5:91:2e:d0:76:68:1a:b3:cc:ee:35:11:61:b8:ef:a2:23:95:
         3d:56:1f:7e:d1:66:9b:b8:0a:a0:2a:74:ce:6a:c7:a3:69:01:
         9f:d0:ae:4a:60:23:7a:11:6d:56:9d:01:4f:e4:4f:83:02:ec:
         ff:ea:87:13:78:d7:74:b4:75:47:5f:3b:76:58:81:8a:5c:7f:
         a0:d9:e4:6b:d5:ef:33:70:ef:e4:b9:2e:9a:b5:17:71:36:2b:
         17:61:67:a1:53:88:de:b0:d1:f7:72:86:f3:fb:53:99:c9:a7:
         2e:5f:28:8f
-----BEGIN CERTIFICATE-----
MIIDizCCAnMCAS8wDQYJKoZIhvcNAQELBQAwgaIxCzAJBgNVBAYTAlVTMREwDwYD
VQQIDAhDb2xvcmFkbzETMBEGA1UEBwwKTG91aXN2aWxsZTESMBAGA1UECgwJQ2Fi
bGVMYWJzMScwJQYJKoZIhvcNAQkBFhhzZWNibGFua2V0QGNhYmxlbGFicy5jb20x
LjAsBgNVBAMMJUxvY2FsIE1pY3JvbmV0cyBDZXJ0aWZpY2F0ZSBBdXRob3JpdHkw
HhcNMTgxMjA1MjM1MDAwWhcNMTkwMjAzMjM1MDAwWjB0MQswCQYDVQQGEwJVUzER
MA8GA1UECAwIQ29sb3JhZG8xEjAQBgNVBAoMCUNhYmxlTGFiczEWMBQGA1UEAwwN
bWVkaWNhbERldmljZTEmMCQGCSqGSIb3DQEJARYXbWljcm9uZXRzQGNhYmxlbGFi
cy5jb20wggEiMA0GCSqGSIb3DQEBAQUAA4IBDwAwggEKAoIBAQDPMf9znUEYRRkk
QM3hFJA/4wa5mQx2elOyAd6Dn6yRXn8MDSjGDpwFyPpsY0yin3aglHND3m0Qe60t
tnZnCfSs7xUeaAxU0q34CxJys3DFUdbO1LfqC8PknnOsdeB8MS5gBCP2p0+FvRI3
B76sq8Qh8ZYGOUYpds4n+Kxl7z2+2nIlC1iD58vat85cw2tOGu9kPyvXnVz/Sf0m
AM8k9HAcGvNKqLqXmPRriuozxDIi8pN5pyj2gPS5vJX5qyukrp6442OircwQ8vPU
6r2w2NyeIOkNGqCLLfBGKASn6F5/GzGBnUD85tVxCsTlehnqjCW4ypZIZf9uazdT
xp9EcWp3AgMBAAEwDQYJKoZIhvcNAQELBQADggEBALSXGqbpvjReyDYHbqMz79CC
Qyd0lJnz/cN8GymQkxEAvM79rp0Hhe7+7MKQDiFnrm1hFSL7YqMqEgRlCibpt9NW
8JaSWQ4I5rYNDqMc+xQTiBddz7cPy9ovXtUev+NQSZtJneQJTHTEt21krkvkXWcX
jXSI3YZx8lB7GM0oc9Usm9UCVvYSwqCeipHU0ZAkkcWRLtB2aBqzzO41EWG476Ij
lT1WH37RZpu4CqAqdM5qx6NpAZ/QrkpgI3oRbVadAU/kT4MC7P/qhxN413S0dUdf
O3ZYgYpcf6DZ5GvV7zNw7+S5Lpq1F3E2KxdhZ6FTiN6w0fdyhvP7U5nJpy5fKI8=
-----END CERTIFICATE-----
