Certificate:
    Data:
        Version: 1 (0x0)
        Serial Number: 46 (0x2e)
    Signature Algorithm: sha256WithRSAEncryption
        Issuer: C=US, ST=Colorado, L=Louisville, O=CableLabs/emailAddress=secblanket@cablelabs.com, CN=Local Micronets Certificate Authority
        Validity
            Not Before: Dec  5 23:33:43 2018 GMT
            Not After : Feb  3 23:33:43 2019 GMT
        Subject: C=US, ST=Colorado, O=CableLabs, CN=medicalDevice/emailAddress=micronets@cablelabs.com
        Subject Public Key Info:
            Public Key Algorithm: rsaEncryption
                Public-Key: (2048 bit)
                Modulus:
                    00:cf:31:ff:73:9d:41:18:45:19:24:40:cd:e1:14:
                    90:3f:e3:06:b9:99:0c:76:7a:53:b2:01:de:83:9f:
                    ac:91:5e:7f:0c:0d:28:c6:0e:9c:05:c8:fa:6c:63:
                    4c:a2:9f:76:a0:94:73:43:de:6d:10:7b:ad:2d:b6:
                    76:67:09:f4:ac:ef:15:1e:68:0c:54:d2:ad:f8:0b:
                    12:72:b3:70:c5:51:d6:ce:d4:b7:ea:0b:c3:e4:9e:
                    73:ac:75:e0:7c:31:2e:60:04:23:f6:a7:4f:85:bd:
                    12:37:07:be:ac:ab:c4:21:f1:96:06:39:46:29:76:
                    ce:27:f8:ac:65:ef:3d:be:da:72:25:0b:58:83:e7:
                    cb:da:b7:ce:5c:c3:6b:4e:1a:ef:64:3f:2b:d7:9d:
                    5c:ff:49:fd:26:00:cf:24:f4:70:1c:1a:f3:4a:a8:
                    ba:97:98:f4:6b:8a:ea:33:c4:32:22:f2:93:79:a7:
                    28:f6:80:f4:b9:bc:95:f9:ab:2b:a4:ae:9e:b8:e3:
                    63:a2:ad:cc:10:f2:f3:d4:ea:bd:b0:d8:dc:9e:20:
                    e9:0d:1a:a0:8b:2d:f0:46:28:04:a7:e8:5e:7f:1b:
                    31:81:9d:40:fc:e6:d5:71:0a:c4:e5:7a:19:ea:8c:
                    25:b8:ca:96:48:65:ff:6e:6b:37:53:c6:9f:44:71:
                    6a:77
                Exponent: 65537 (0x10001)
    Signature Algorithm: sha256WithRSAEncryption
         65:a6:6e:cc:d4:cb:bb:3e:b8:1d:38:ac:a8:44:2d:70:24:dd:
         d9:ec:14:94:6b:62:53:d0:d2:31:90:d0:3c:b5:28:96:1a:0d:
         0a:1e:31:7c:a6:f8:4c:31:09:03:18:8c:0f:52:f1:ec:87:db:
         f8:22:07:7f:6d:d1:75:35:39:8e:04:f4:36:7b:cd:7e:3c:5f:
         e4:63:2e:b3:35:8d:26:26:d5:f7:04:6a:c7:a2:83:fe:a2:fb:
         26:f0:74:fc:d1:43:19:b9:ec:8e:b6:70:1a:7f:3b:17:1d:12:
         85:e2:eb:3e:cb:ee:e3:29:5c:69:93:b5:cc:8d:26:8d:5f:b5:
         00:17:05:6d:f7:76:6f:bd:05:27:28:c8:73:e8:22:41:9f:a9:
         a8:b6:49:f4:fb:c0:d4:ea:18:e2:05:13:3f:5f:04:ef:44:b4:
         12:13:2d:46:2e:4c:ab:36:51:6e:b2:f0:f1:52:1f:2f:ae:c1:
         6d:15:5d:dd:9e:1f:35:c0:3e:fc:22:82:0f:d2:e4:a0:34:a0:
         a8:d9:fe:02:d4:06:3f:a8:e0:2c:7f:fb:64:87:f2:9f:bf:4c:
         86:2a:c1:a8:e8:e0:27:57:25:26:f2:11:5e:92:d6:a0:b5:ea:
         27:08:ba:09:36:52:9e:c8:29:17:4b:f9:ca:0e:d0:32:04:2d:
         e0:f2:e1:a6
-----BEGIN CERTIFICATE-----
MIIDizCCAnMCAS4wDQYJKoZIhvcNAQELBQAwgaIxCzAJBgNVBAYTAlVTMREwDwYD
VQQIDAhDb2xvcmFkbzETMBEGA1UEBwwKTG91aXN2aWxsZTESMBAGA1UECgwJQ2Fi
bGVMYWJzMScwJQYJKoZIhvcNAQkBFhhzZWNibGFua2V0QGNhYmxlbGFicy5jb20x
LjAsBgNVBAMMJUxvY2FsIE1pY3JvbmV0cyBDZXJ0aWZpY2F0ZSBBdXRob3JpdHkw
HhcNMTgxMjA1MjMzMzQzWhcNMTkwMjAzMjMzMzQzWjB0MQswCQYDVQQGEwJVUzER
MA8GA1UECAwIQ29sb3JhZG8xEjAQBgNVBAoMCUNhYmxlTGFiczEWMBQGA1UEAwwN
bWVkaWNhbERldmljZTEmMCQGCSqGSIb3DQEJARYXbWljcm9uZXRzQGNhYmxlbGFi
cy5jb20wggEiMA0GCSqGSIb3DQEBAQUAA4IBDwAwggEKAoIBAQDPMf9znUEYRRkk
QM3hFJA/4wa5mQx2elOyAd6Dn6yRXn8MDSjGDpwFyPpsY0yin3aglHND3m0Qe60t
tnZnCfSs7xUeaAxU0q34CxJys3DFUdbO1LfqC8PknnOsdeB8MS5gBCP2p0+FvRI3
B76sq8Qh8ZYGOUYpds4n+Kxl7z2+2nIlC1iD58vat85cw2tOGu9kPyvXnVz/Sf0m
AM8k9HAcGvNKqLqXmPRriuozxDIi8pN5pyj2gPS5vJX5qyukrp6442OircwQ8vPU
6r2w2NyeIOkNGqCLLfBGKASn6F5/GzGBnUD85tVxCsTlehnqjCW4ypZIZf9uazdT
xp9EcWp3AgMBAAEwDQYJKoZIhvcNAQELBQADggEBAGWmbszUy7s+uB04rKhELXAk
3dnsFJRrYlPQ0jGQ0Dy1KJYaDQoeMXym+EwxCQMYjA9S8eyH2/giB39t0XU1OY4E
9DZ7zX48X+RjLrM1jSYm1fcEaseig/6i+ybwdPzRQxm57I62cBp/OxcdEoXi6z7L
7uMpXGmTtcyNJo1ftQAXBW33dm+9BScoyHPoIkGfqai2SfT7wNTqGOIFEz9fBO9E
tBITLUYuTKs2UW6y8PFSHy+uwW0VXd2eHzXAPvwigg/S5KA0oKjZ/gLUBj+o4Cx/
+2SH8p+/TIYqwajo4CdXJSbyEV6S1qC16icIugk2Up7IKRdL+coO0DIELeDy4aY=
-----END CERTIFICATE-----
